target datalayout = "e-m:e-p270:32:32-p271:32:32-p272:64:64-i64:64-i128:128-f80:128-n8:16:32:64-S128"
target triple = "x86_64-unknown-linux-gnu"

%struct.strList = type { ptr, ptr }
%struct.MachineClass = type { %struct.ObjectClass, ptr, ptr, ptr, ptr, ptr, ptr, ptr, ptr, ptr, i32, i32, i32, i32, i32, i8, i8, ptr, ptr, ptr, ptr, ptr, ptr, i64, ptr, i8, i8, i8, i32, i8, i8, i32, ptr, ptr, i8, i8, i8, i8, i8, i8, i8, i8, %struct.SMPCompatProps, ptr, ptr, ptr, ptr, ptr, ptr, ptr }
%struct.ObjectClass = type { ptr, ptr, [4 x ptr], [4 x ptr], ptr, ptr }
%struct.SMPCompatProps = type { i8, i8, i8, i8, i8, i8 }

; Function Attrs: nounwind sspstrong uwtable
define dso_local void @machine_class_allow_dynamic_sysbus_dev(ptr noundef %mc, ptr noundef %type) #0 {
entry:
  %mc.addr = alloca ptr, align 8
  %type.addr = alloca ptr, align 8
  %_tmp = alloca ptr, align 8
  store ptr %mc, ptr %mc.addr, align 8
  store ptr %type, ptr %type.addr, align 8
  br label %do.body

do.body:                                          ; preds = %entry
  %call = call noalias ptr @g_malloc(i64 noundef 16) #10
  store ptr %call, ptr %_tmp, align 8
  %0 = load ptr, ptr %type.addr, align 8
  %call1 = call noalias ptr @g_strdup(ptr noundef %0)
  %1 = load ptr, ptr %_tmp, align 8
  %value = getelementptr inbounds %struct.strList, ptr %1, i32 0, i32 1
  store ptr %call1, ptr %value, align 8
  %2 = load ptr, ptr %mc.addr, align 8
  %allowed_dynamic_sysbus_devices = getelementptr inbounds %struct.MachineClass, ptr %2, i32 0, i32 33
  %3 = load ptr, ptr %allowed_dynamic_sysbus_devices, align 8
  %4 = load ptr, ptr %_tmp, align 8
  %next = getelementptr inbounds %struct.strList, ptr %4, i32 0, i32 0
  store ptr %3, ptr %next, align 8
  %5 = load ptr, ptr %_tmp, align 8
  %6 = load ptr, ptr %mc.addr, align 8
  %allowed_dynamic_sysbus_devices2 = getelementptr inbounds %struct.MachineClass, ptr %6, i32 0, i32 33
  store ptr %5, ptr %allowed_dynamic_sysbus_devices2, align 8
  br label %do.end

do.end:                                           ; preds = %do.body
  ret void
}