; Function Attrs: nounwind sspstrong uwtable
define dso_local void @machine_class_allow_dynamic_sysbus_dev(ptr noundef captures(none) %mc, ptr noundef %type) local_unnamed_addr #0 {
entry:
  %call = tail call noalias dereferenceable_or_null(16) ptr @g_malloc(i64 noundef 16) #15
  %call1 = tail call noalias ptr @g_strdup(ptr noundef %type) #16
  %value = getelementptr inbounds nuw i8, ptr %call, i64 8
  store ptr %call1, ptr %value, align 8
  %allowed_dynamic_sysbus_devices = getelementptr inbounds nuw i8, ptr %mc, i64 280
  %0 = load ptr, ptr %allowed_dynamic_sysbus_devices, align 8
  store ptr %0, ptr %call, align 8
  store ptr %call, ptr %allowed_dynamic_sysbus_devices, align 8
  ret void
}